; Function Attrs: nounwind uwtable
define hidden range(i32 0, 2) i32 @_Py_FdIsInteractive(ptr noundef captures(none) %0, ptr noundef %1) local_unnamed_addr #1 {
  %3 = tail call i32 @fileno(ptr noundef %0) #23
  %4 = tail call i32 @isatty(i32 noundef %3) #23
  %.not = icmp eq i32 %4, 0
  br i1 %.not, label %5, label %18

5:                                                ; preds = %2
  %6 = tail call ptr @_Py_GetConfig() #23
  %7 = getelementptr inbounds nuw i8, ptr %6, i64 192
  %8 = load i32, ptr %7, align 8, !tbaa !308
  %.not5 = icmp eq i32 %8, 0
  br i1 %.not5, label %18, label %9

9:                                                ; preds = %5
  %10 = icmp eq ptr %1, null
  br i1 %10, label %18, label %11

11:                                               ; preds = %9
  %12 = tail call i32 @PyUnicode_CompareWithASCIIString(ptr noundef nonnull %1, ptr noundef nonnull @.str.147) #23
  %13 = icmp eq i32 %12, 0
  br i1 %13, label %18, label %14

14:                                               ; preds = %11
  %15 = tail call i32 @PyUnicode_CompareWithASCIIString(ptr noundef nonnull %1, ptr noundef nonnull @.str.148) #23
  %16 = icmp eq i32 %15, 0
  %17 = zext i1 %16 to i32
  br label %18

18:                                               ; preds = %9, %11, %14, %5, %2
  %.0 = phi i32 [ 1, %2 ], [ 0, %5 ], [ 1, %11 ], [ 1, %9 ], [ %17, %14 ]
  ret i32 %.0
}